target datalayout = "e-m:e-p270:32:32-p271:32:32-p272:64:64-i64:64-i128:128-f80:128-n8:16:32:64-S128"
target triple = "x86_64-pc-linux-gnu"

; Function Attrs: nounwind uwtable
define internal i32 @H5O__refcount_encode(ptr noundef %0, i1 noundef zeroext %1, i64 noundef %2, ptr noundef %3, ptr noundef %4) #0 {
  %6 = alloca ptr, align 8
  %7 = alloca i8, align 1
  %8 = alloca i64, align 8
  %9 = alloca ptr, align 8
  %10 = alloca ptr, align 8
  %11 = alloca ptr, align 8
  store ptr %0, ptr %6, align 8
  %12 = zext i1 %1 to i8
  store i8 %12, ptr %7, align 1
  store i64 %2, ptr %8, align 8
  store ptr %3, ptr %9, align 8
  store ptr %4, ptr %10, align 8
  %13 = load ptr, ptr %10, align 8
  store ptr %13, ptr %11, align 8
  %14 = load ptr, ptr %9, align 8
  %15 = getelementptr inbounds i8, ptr %14, i32 1
  store ptr %15, ptr %9, align 8
  store i8 0, ptr %14, align 1
  br label %16

16:                                               ; preds = %5
  %17 = load ptr, ptr %11, align 8
  %18 = load i32, ptr %17, align 4
  %19 = and i32 %18, 255
  %20 = trunc i32 %19 to i8
  %21 = load ptr, ptr %9, align 8
  store i8 %20, ptr %21, align 1
  %22 = load ptr, ptr %9, align 8
  %23 = getelementptr inbounds i8, ptr %22, i32 1
  store ptr %23, ptr %9, align 8
  %24 = load ptr, ptr %11, align 8
  %25 = load i32, ptr %24, align 4
  %26 = lshr i32 %25, 8
  %27 = and i32 %26, 255
  %28 = trunc i32 %27 to i8
  %29 = load ptr, ptr %9, align 8
  store i8 %28, ptr %29, align 1
  %30 = load ptr, ptr %9, align 8
  %31 = getelementptr inbounds i8, ptr %30, i32 1
  store ptr %31, ptr %9, align 8
  %32 = load ptr, ptr %11, align 8
  %33 = load i32, ptr %32, align 4
  %34 = lshr i32 %33, 16
  %35 = and i32 %34, 255
  %36 = trunc i32 %35 to i8
  %37 = load ptr, ptr %9, align 8
  store i8 %36, ptr %37, align 1
  %38 = load ptr, ptr %9, align 8
  %39 = getelementptr inbounds i8, ptr %38, i32 1
  store ptr %39, ptr %9, align 8
  %40 = load ptr, ptr %11, align 8
  %41 = load i32, ptr %40, align 4
  %42 = lshr i32 %41, 24
  %43 = and i32 %42, 255
  %44 = trunc i32 %43 to i8
  %45 = load ptr, ptr %9, align 8
  store i8 %44, ptr %45, align 1
  %46 = load ptr, ptr %9, align 8
  %47 = getelementptr inbounds i8, ptr %46, i32 1
  store ptr %47, ptr %9, align 8
  br label %48

48:                                               ; preds = %16
  ret i32 0
}