; Function Attrs: mustprogress nofree norecurse nosync nounwind willreturn memory(argmem: readwrite) uwtable
define internal noundef i32 @H5O__refcount_encode(ptr nocapture readnone %0, i1 zeroext %1, i64 %2, ptr nocapture noundef writeonly %3, ptr nocapture noundef readonly %4) #1 {
  %6 = getelementptr inbounds i8, ptr %3, i64 1
  store i8 0, ptr %3, align 1
  %7 = load i32, ptr %4, align 4
  %8 = trunc i32 %7 to i8
  store i8 %8, ptr %6, align 1
  %9 = getelementptr inbounds i8, ptr %3, i64 2
  %10 = load i32, ptr %4, align 4
  %11 = lshr i32 %10, 8
  %12 = trunc i32 %11 to i8
  store i8 %12, ptr %9, align 1
  %13 = getelementptr inbounds i8, ptr %3, i64 3
  %14 = load i32, ptr %4, align 4
  %15 = lshr i32 %14, 16
  %16 = trunc i32 %15 to i8
  store i8 %16, ptr %13, align 1
  %17 = getelementptr inbounds i8, ptr %3, i64 4
  %18 = load i32, ptr %4, align 4
  %19 = lshr i32 %18, 24
  %20 = trunc nuw i32 %19 to i8
  store i8 %20, ptr %17, align 1
  ret i32 0
}